target datalayout = "e-m:e-p270:32:32-p271:32:32-p272:64:64-i64:64-i128:128-f80:128-n8:16:32:64-S128"
target triple = "x86_64-pc-linux-gnu"

%struct.GistSortedBuildLevelState = type { i32, i32, ptr, [4 x ptr] }
%struct.PageHeaderData = type { %struct.PageXLogRecPtr, i16, i16, i16, i16, i16, i16, i32, [0 x %struct.ItemIdData] }
%struct.PageXLogRecPtr = type { i32, i32 }
%struct.ItemIdData = type { i32 }
%struct.IndexTupleData = type { %struct.ItemPointerData, i16 }
%struct.ItemPointerData = type { %struct.BlockIdData, i16 }
%struct.BlockIdData = type { i16, i16 }
%struct.GISTPageOpaqueData = type { %struct.PageXLogRecPtr, i32, i16, i16 }

; Function Attrs: inlinehint nounwind uwtable
define internal void @PageValidateSpecialPointer(ptr noundef %0) #4 {
  %2 = alloca ptr, align 8
  store ptr %0, ptr %2, align 8
  ret void
}

; Function Attrs: inlinehint nounwind uwtable
define internal i64 @IndexTupleSize(ptr noundef %0) #4 {
  %2 = alloca ptr, align 8
  store ptr %0, ptr %2, align 8
  %3 = load ptr, ptr %2, align 8
  %4 = getelementptr inbounds nuw %struct.IndexTupleData, ptr %3, i32 0, i32 1
  %5 = load i16, ptr %4, align 2
  %6 = zext i16 %5 to i32
  %7 = and i32 %6, 8191
  %8 = sext i32 %7 to i64
  ret i64 %8
}

; Function Attrs: nounwind uwtable
define internal void @gist_indexsortbuild_levelstate_add(ptr noundef %0, ptr noundef %1, ptr noundef %2) #0 {
  %4 = alloca ptr, align 8
  %5 = alloca ptr, align 8
  %6 = alloca ptr, align 8
  %7 = alloca i64, align 8
  %8 = alloca ptr, align 8
  %9 = alloca ptr, align 8
  %10 = alloca i16, align 2
  store ptr %0, ptr %4, align 8
  store ptr %1, ptr %5, align 8
  store ptr %2, ptr %6, align 8
  call void @llvm.lifetime.start.p0(i64 8, ptr %7) #10
  %11 = load ptr, ptr %6, align 8
  %12 = call i64 @IndexTupleSize(ptr noundef %11)
  %13 = add i64 %12, 4
  store i64 %13, ptr %7, align 8
  %14 = load ptr, ptr %5, align 8
  %15 = getelementptr inbounds nuw %struct.GistSortedBuildLevelState, ptr %14, i32 0, i32 3
  %16 = load ptr, ptr %5, align 8
  %17 = getelementptr inbounds nuw %struct.GistSortedBuildLevelState, ptr %16, i32 0, i32 0
  %18 = load i32, ptr %17, align 8
  %19 = sext i32 %18 to i64
  %20 = getelementptr inbounds [4 x ptr], ptr %15, i64 0, i64 %19
  %21 = load ptr, ptr %20, align 8
  %22 = call i64 @PageGetFreeSpace(ptr noundef %21)
  %23 = load i64, ptr %7, align 8
  %24 = icmp ult i64 %22, %23
  br i1 %24, label %25, label %88

25:                                               ; preds = %3
  call void @llvm.lifetime.start.p0(i64 8, ptr %8) #10
  call void @llvm.lifetime.start.p0(i64 8, ptr %9) #10
  %26 = load ptr, ptr %5, align 8
  %27 = getelementptr inbounds nuw %struct.GistSortedBuildLevelState, ptr %26, i32 0, i32 3
  %28 = load ptr, ptr %5, align 8
  %29 = getelementptr inbounds nuw %struct.GistSortedBuildLevelState, ptr %28, i32 0, i32 0
  %30 = load i32, ptr %29, align 8
  %31 = sext i32 %30 to i64
  %32 = getelementptr inbounds [4 x ptr], ptr %27, i64 0, i64 %31
  %33 = load ptr, ptr %32, align 8
  store ptr %33, ptr %9, align 8
  call void @llvm.lifetime.start.p0(i64 2, ptr %10) #10
  %34 = load ptr, ptr %9, align 8
  call void @PageValidateSpecialPointer(ptr noundef %34)
  %35 = load ptr, ptr %9, align 8
  %36 = load ptr, ptr %9, align 8
  %37 = getelementptr inbounds nuw %struct.PageHeaderData, ptr %36, i32 0, i32 5
  %38 = load i16, ptr %37, align 4
  %39 = zext i16 %38 to i32
  %40 = sext i32 %39 to i64
  %41 = getelementptr inbounds i8, ptr %35, i64 %40
  %42 = getelementptr inbounds nuw %struct.GISTPageOpaqueData, ptr %41, i32 0, i32 2
  %43 = load i16, ptr %42, align 4
  store i16 %43, ptr %10, align 2
  %44 = load ptr, ptr %5, align 8
  %45 = getelementptr inbounds nuw %struct.GistSortedBuildLevelState, ptr %44, i32 0, i32 0
  %46 = load i32, ptr %45, align 8
  %47 = add i32 %46, 1
  %48 = icmp eq i32 %47, 4
  br i1 %48, label %49, label %52

49:                                               ; preds = %25
  %50 = load ptr, ptr %4, align 8
  %51 = load ptr, ptr %5, align 8
  call void @gist_indexsortbuild_levelstate_flush(ptr noundef %50, ptr noundef %51)
  br label %57

52:                                               ; preds = %25
  %53 = load ptr, ptr %5, align 8
  %54 = getelementptr inbounds nuw %struct.GistSortedBuildLevelState, ptr %53, i32 0, i32 0
  %55 = load i32, ptr %54, align 8
  %56 = add i32 %55, 1
  store i32 %56, ptr %54, align 8
  br label %57

57:                                               ; preds = %52, %49
  %58 = load ptr, ptr %5, align 8
  %59 = getelementptr inbounds nuw %struct.GistSortedBuildLevelState, ptr %58, i32 0, i32 3
  %60 = load ptr, ptr %5, align 8
  %61 = getelementptr inbounds nuw %struct.GistSortedBuildLevelState, ptr %60, i32 0, i32 0
  %62 = load i32, ptr %61, align 8
  %63 = sext i32 %62 to i64
  %64 = getelementptr inbounds [4 x ptr], ptr %59, i64 0, i64 %63
  %65 = load ptr, ptr %64, align 8
  %66 = icmp eq ptr %65, null
  br i1 %66, label %67, label %76

67:                                               ; preds = %57
  %68 = call ptr @palloc0(i64 noundef 8192)
  %69 = load ptr, ptr %5, align 8
  %70 = getelementptr inbounds nuw %struct.GistSortedBuildLevelState, ptr %69, i32 0, i32 3
  %71 = load ptr, ptr %5, align 8
  %72 = getelementptr inbounds nuw %struct.GistSortedBuildLevelState, ptr %71, i32 0, i32 0
  %73 = load i32, ptr %72, align 8
  %74 = sext i32 %73 to i64
  %75 = getelementptr inbounds [4 x ptr], ptr %70, i64 0, i64 %74
  store ptr %68, ptr %75, align 8
  br label %76

76:                                               ; preds = %67, %57
  %77 = load ptr, ptr %5, align 8
  %78 = getelementptr inbounds nuw %struct.GistSortedBuildLevelState, ptr %77, i32 0, i32 3
  %79 = load ptr, ptr %5, align 8
  %80 = getelementptr inbounds nuw %struct.GistSortedBuildLevelState, ptr %79, i32 0, i32 0
  %81 = load i32, ptr %80, align 8
  %82 = sext i32 %81 to i64
  %83 = getelementptr inbounds [4 x ptr], ptr %78, i64 0, i64 %82
  %84 = load ptr, ptr %83, align 8
  store ptr %84, ptr %8, align 8
  %85 = load ptr, ptr %8, align 8
  %86 = load i16, ptr %10, align 2
  %87 = zext i16 %86 to i32
  call void @gistinitpage(ptr noundef %85, i32 noundef %87)
  call void @llvm.lifetime.end.p0(i64 2, ptr %10) #10
  call void @llvm.lifetime.end.p0(i64 8, ptr %9) #10
  call void @llvm.lifetime.end.p0(i64 8, ptr %8) #10
  br label %88

88:                                               ; preds = %76, %3
  %89 = load ptr, ptr %5, align 8
  %90 = getelementptr inbounds nuw %struct.GistSortedBuildLevelState, ptr %89, i32 0, i32 3
  %91 = load ptr, ptr %5, align 8
  %92 = getelementptr inbounds nuw %struct.GistSortedBuildLevelState, ptr %91, i32 0, i32 0
  %93 = load i32, ptr %92, align 8
  %94 = sext i32 %93 to i64
  %95 = getelementptr inbounds [4 x ptr], ptr %90, i64 0, i64 %94
  %96 = load ptr, ptr %95, align 8
  call void @gistfillbuffer(ptr noundef %96, ptr noundef %6, i32 noundef 1, i16 noundef zeroext 0)
  call void @llvm.lifetime.end.p0(i64 8, ptr %7) #10
  ret void
}