; Function Attrs: nounwind uwtable
define internal fastcc void @gist_indexsortbuild_levelstate_add(ptr noundef nonnull captures(none) %0, ptr noundef captures(none) %1, ptr noundef %2) unnamed_addr #0 {
  %4 = alloca ptr, align 8
  store ptr %2, ptr %4, align 8
  %5 = getelementptr i8, ptr %2, i64 6
  %.val = load i16, ptr %5, align 2
  %6 = and i16 %.val, 8191
  %narrow = add nuw nsw i16 %6, 4
  %7 = zext nneg i16 %narrow to i64
  %8 = getelementptr inbounds nuw i8, ptr %1, i64 16
  %9 = load i32, ptr %1, align 8
  %10 = sext i32 %9 to i64
  %11 = getelementptr inbounds [4 x ptr], ptr %8, i64 0, i64 %10
  %12 = load ptr, ptr %11, align 8
  %13 = tail call i64 @PageGetFreeSpace(ptr noundef %12) #10
  %14 = icmp ult i64 %13, %7
  br i1 %14, label %15, label %44

15:                                               ; preds = %3
  %16 = load i32, ptr %1, align 8
  %17 = sext i32 %16 to i64
  %18 = getelementptr inbounds [4 x ptr], ptr %8, i64 0, i64 %17
  %19 = load ptr, ptr %18, align 8
  %20 = getelementptr inbounds nuw i8, ptr %19, i64 16
  %21 = load i16, ptr %20, align 4
  %22 = zext i16 %21 to i64
  %23 = getelementptr inbounds nuw i8, ptr %19, i64 %22
  %24 = getelementptr inbounds nuw i8, ptr %23, i64 12
  %25 = load i16, ptr %24, align 4
  %26 = add i32 %16, 1
  %27 = icmp eq i32 %26, 4
  br i1 %27, label %28, label %29

28:                                               ; preds = %15
  tail call fastcc void @gist_indexsortbuild_levelstate_flush(ptr noundef %0, ptr noundef nonnull %1)
  %.pre = load i32, ptr %1, align 8
  br label %30

29:                                               ; preds = %15
  store i32 %26, ptr %1, align 8
  br label %30

30:                                               ; preds = %29, %28
  %31 = phi i32 [ %26, %29 ], [ %.pre, %28 ]
  %32 = sext i32 %31 to i64
  %33 = getelementptr inbounds [4 x ptr], ptr %8, i64 0, i64 %32
  %34 = load ptr, ptr %33, align 8
  %35 = icmp eq ptr %34, null
  br i1 %35, label %36, label %41

36:                                               ; preds = %30
  %37 = tail call ptr @palloc0(i64 noundef 8192) #10
  %38 = load i32, ptr %1, align 8
  %39 = sext i32 %38 to i64
  %40 = getelementptr inbounds [4 x ptr], ptr %8, i64 0, i64 %39
  store ptr %37, ptr %40, align 8
  %.pre21 = load i32, ptr %1, align 8
  %.phi.trans.insert = sext i32 %.pre21 to i64
  %.phi.trans.insert22 = getelementptr inbounds [4 x ptr], ptr %8, i64 0, i64 %.phi.trans.insert
  %.pre23 = load ptr, ptr %.phi.trans.insert22, align 8
  br label %41

41:                                               ; preds = %36, %30
  %42 = phi ptr [ %.pre23, %36 ], [ %34, %30 ]
  %43 = zext i16 %25 to i32
  tail call void @gistinitpage(ptr noundef %42, i32 noundef %43) #10
  br label %44

44:                                               ; preds = %41, %3
  %45 = load i32, ptr %1, align 8
  %46 = sext i32 %45 to i64
  %47 = getelementptr inbounds [4 x ptr], ptr %8, i64 0, i64 %46
  %48 = load ptr, ptr %47, align 8
  call void @gistfillbuffer(ptr noundef %48, ptr noundef nonnull %4, i32 noundef 1, i16 noundef zeroext 0) #10
  ret void
}